; Function Attrs: nounwind uwtable
define ptr @l___private_Lean_Meta_Hint_0__Lean_Meta_Hint_mkDiffJson(ptr noundef readonly captures(none) %0) local_unnamed_addr #0 {
lean_nat_lt.exit:
  %1 = getelementptr i8, ptr %0, i64 8
  %.val = load i64, ptr %1, align 8, !tbaa !13
  %.mask = and i64 %.val, 9223372036854775807
  %.not = icmp eq i64 %.mask, 0
  br i1 %.not, label %lean_dec.exit19, label %lean_dec.exit

lean_dec.exit:                                    ; preds = %lean_nat_lt.exit
  %2 = tail call ptr @l_Array_foldrMUnsafe_fold___at___private_Lean_Meta_Hint_0__Lean_Meta_Hint_mkDiffJson___spec__3(ptr noundef nonnull %0, i64 noundef %.mask, i64 noundef 0, ptr noundef nonnull inttoptr (i64 1 to ptr))
  br label %lean_dec.exit19

lean_dec.exit19:                                  ; preds = %lean_nat_lt.exit, %lean_dec.exit
  %.sink = phi ptr [ %2, %lean_dec.exit ], [ inttoptr (i64 1 to ptr), %lean_nat_lt.exit ]
  %3 = tail call ptr @l_List_mapTR_loop___at___private_Lean_Meta_Hint_0__Lean_Meta_Hint_mkDiffJson___spec__1(ptr noundef %.sink, ptr noundef nonnull inttoptr (i64 1 to ptr))
  %4 = tail call ptr @lean_array_mk(ptr noundef %3) #4
  %5 = tail call ptr @l_Array_toJson___at___private_Lean_Data_Lsp_Basic_0__Lean_Lsp_toJsonCommand____x40_Lean_Data_Lsp_Basic___hyg_1558____spec__2(ptr noundef %4) #4
  ret ptr %5
}